target datalayout = "e-m:e-p270:32:32-p271:32:32-p272:64:64-i64:64-i128:128-f80:128-n8:16:32:64-S128"
target triple = "x86_64-pc-linux-gnu"

%struct.fd_data = type { ptr, ptr, i64, ptr, i64 }
%struct.fd_buf = type { ptr, i64, i64, i32, i8, i32, i32, i32, i32, i32, i32, i64, ptr, i64, ptr }

; Function Attrs: nounwind uwtable
define internal void @fds_unlock(ptr noundef %0) #0 {
  %2 = alloca ptr, align 8
  store ptr %0, ptr %2, align 8
  %3 = load ptr, ptr %2, align 8
  %4 = getelementptr inbounds %struct.fd_data, ptr %3, i32 0, i32 0
  %5 = load ptr, ptr %4, align 8
  %6 = icmp ne ptr %5, null
  br i1 %6, label %7, label %12

7:                                                ; preds = %1
  %8 = load ptr, ptr %2, align 8
  %9 = getelementptr inbounds %struct.fd_data, ptr %8, i32 0, i32 0
  %10 = load ptr, ptr %9, align 8
  %11 = call i32 @pthread_mutex_unlock(ptr noundef %10) #12
  br label %12

12:                                               ; preds = %7, %1
  ret void
}

; Function Attrs: nounwind uwtable
define internal void @fds_lock(ptr noundef %0) #0 {
  %2 = alloca ptr, align 8
  store ptr %0, ptr %2, align 8
  %3 = load ptr, ptr %2, align 8
  %4 = getelementptr inbounds %struct.fd_data, ptr %3, i32 0, i32 0
  %5 = load ptr, ptr %4, align 8
  %6 = icmp ne ptr %5, null
  br i1 %6, label %7, label %12

7:                                                ; preds = %1
  %8 = load ptr, ptr %2, align 8
  %9 = getelementptr inbounds %struct.fd_data, ptr %8, i32 0, i32 0
  %10 = load ptr, ptr %9, align 8
  %11 = call i32 @pthread_mutex_lock(ptr noundef %10) #12
  br label %12

12:                                               ; preds = %7, %1
  ret void
}

; Function Attrs: nounwind uwtable
define dso_local void @fds_free(ptr noundef %0) #0 {
  %2 = alloca ptr, align 8
  %3 = alloca i32, align 4
  store ptr %0, ptr %2, align 8
  %4 = load ptr, ptr %2, align 8
  call void @fds_lock(ptr noundef %4)
  store i32 0, ptr %3, align 4
  br label %5

5:                                                ; preds = %32, %1
  %6 = load i32, ptr %3, align 4
  %7 = zext i32 %6 to i64
  %8 = load ptr, ptr %2, align 8
  %9 = getelementptr inbounds %struct.fd_data, ptr %8, i32 0, i32 2
  %10 = load i64, ptr %9, align 8
  %11 = icmp ult i64 %7, %10
  br i1 %11, label %12, label %35

12:                                               ; preds = %5
  %13 = load ptr, ptr %2, align 8
  %14 = getelementptr inbounds %struct.fd_data, ptr %13, i32 0, i32 1
  %15 = load ptr, ptr %14, align 8
  %16 = load i32, ptr %3, align 4
  %17 = zext i32 %16 to i64
  %18 = getelementptr inbounds %struct.fd_buf, ptr %15, i64 %17
  %19 = getelementptr inbounds %struct.fd_buf, ptr %18, i32 0, i32 0
  %20 = load ptr, ptr %19, align 8
  %21 = icmp ne ptr %20, null
  br i1 %21, label %22, label %31

22:                                               ; preds = %12
  %23 = load ptr, ptr %2, align 8
  %24 = getelementptr inbounds %struct.fd_data, ptr %23, i32 0, i32 1
  %25 = load ptr, ptr %24, align 8
  %26 = load i32, ptr %3, align 4
  %27 = zext i32 %26 to i64
  %28 = getelementptr inbounds %struct.fd_buf, ptr %25, i64 %27
  %29 = getelementptr inbounds %struct.fd_buf, ptr %28, i32 0, i32 0
  %30 = load ptr, ptr %29, align 8
  call void @free(ptr noundef %30) #12
  br label %31

31:                                               ; preds = %22, %12
  br label %32

32:                                               ; preds = %31
  %33 = load i32, ptr %3, align 4
  %34 = add i32 %33, 1
  store i32 %34, ptr %3, align 4
  br label %5

35:                                               ; preds = %5
  %36 = load ptr, ptr %2, align 8
  %37 = getelementptr inbounds %struct.fd_data, ptr %36, i32 0, i32 1
  %38 = load ptr, ptr %37, align 8
  %39 = icmp ne ptr %38, null
  br i1 %39, label %40, label %44

40:                                               ; preds = %35
  %41 = load ptr, ptr %2, align 8
  %42 = getelementptr inbounds %struct.fd_data, ptr %41, i32 0, i32 1
  %43 = load ptr, ptr %42, align 8
  call void @free(ptr noundef %43) #12
  br label %44

44:                                               ; preds = %40, %35
  %45 = load ptr, ptr %2, align 8
  %46 = getelementptr inbounds %struct.fd_data, ptr %45, i32 0, i32 3
  %47 = load ptr, ptr %46, align 8
  %48 = icmp ne ptr %47, null
  br i1 %48, label %49, label %53

49:                                               ; preds = %44
  %50 = load ptr, ptr %2, align 8
  %51 = getelementptr inbounds %struct.fd_data, ptr %50, i32 0, i32 3
  %52 = load ptr, ptr %51, align 8
  call void @free(ptr noundef %52) #12
  br label %53

53:                                               ; preds = %49, %44
  %54 = load ptr, ptr %2, align 8
  %55 = getelementptr inbounds %struct.fd_data, ptr %54, i32 0, i32 1
  store ptr null, ptr %55, align 8
  %56 = load ptr, ptr %2, align 8
  %57 = getelementptr inbounds %struct.fd_data, ptr %56, i32 0, i32 2
  store i64 0, ptr %57, align 8
  %58 = load ptr, ptr %2, align 8
  call void @fds_unlock(ptr noundef %58)
  ret void
}