; Function Attrs: nounwind uwtable
define dso_local void @fds_free(ptr nocapture noundef %0) local_unnamed_addr #0 {
  %.val20 = load ptr, ptr %0, align 8
  %.not.i = icmp eq ptr %.val20, null
  br i1 %.not.i, label %fds_lock.exit, label %2

2:                                                ; preds = %1
  %3 = tail call i32 @pthread_mutex_lock(ptr noundef nonnull %.val20) #21
  br label %fds_lock.exit

fds_lock.exit:                                    ; preds = %1, %2
  %4 = getelementptr inbounds i8, ptr %0, i64 16
  %5 = load i64, ptr %4, align 8
  %.not23 = icmp eq i64 %5, 0
  br i1 %.not23, label %._crit_edge, label %.lr.ph

.lr.ph:                                           ; preds = %fds_lock.exit
  %6 = getelementptr inbounds i8, ptr %0, i64 8
  br label %7

7:                                                ; preds = %.lr.ph, %14
  %8 = phi i64 [ %5, %.lr.ph ], [ %15, %14 ]
  %9 = phi i64 [ 0, %.lr.ph ], [ %17, %14 ]
  %.022 = phi i32 [ 0, %.lr.ph ], [ %16, %14 ]
  %10 = load ptr, ptr %6, align 8
  %11 = getelementptr inbounds %struct.fd_buf, ptr %10, i64 %9
  %12 = load ptr, ptr %11, align 8
  %.not19 = icmp eq ptr %12, null
  br i1 %.not19, label %14, label %13

13:                                               ; preds = %7
  tail call void @free(ptr noundef nonnull %12) #21
  %.pre = load i64, ptr %4, align 8
  br label %14

14:                                               ; preds = %7, %13
  %15 = phi i64 [ %8, %7 ], [ %.pre, %13 ]
  %16 = add i32 %.022, 1
  %17 = zext i32 %16 to i64
  %18 = icmp ugt i64 %15, %17
  br i1 %18, label %7, label %._crit_edge

._crit_edge:                                      ; preds = %14, %fds_lock.exit
  %19 = getelementptr inbounds i8, ptr %0, i64 8
  %20 = load ptr, ptr %19, align 8
  %.not = icmp eq ptr %20, null
  br i1 %.not, label %22, label %21

21:                                               ; preds = %._crit_edge
  tail call void @free(ptr noundef nonnull %20) #21
  br label %22

22:                                               ; preds = %21, %._crit_edge
  %23 = getelementptr inbounds i8, ptr %0, i64 24
  %24 = load ptr, ptr %23, align 8
  %.not18 = icmp eq ptr %24, null
  br i1 %.not18, label %26, label %25

25:                                               ; preds = %22
  tail call void @free(ptr noundef nonnull %24) #21
  br label %26

26:                                               ; preds = %25, %22
  tail call void @llvm.memset.p0.i64(ptr noundef nonnull align 8 dereferenceable(16) %19, i8 0, i64 16, i1 false)
  %.val = load ptr, ptr %0, align 8
  %.not.i21 = icmp eq ptr %.val, null
  br i1 %.not.i21, label %fds_unlock.exit, label %27

27:                                               ; preds = %26
  %28 = tail call i32 @pthread_mutex_unlock(ptr noundef nonnull %.val) #21
  br label %fds_unlock.exit

fds_unlock.exit:                                  ; preds = %26, %27
  ret void
}